target datalayout = "e-m:e-p270:32:32-p271:32:32-p272:64:64-i64:64-i128:128-f80:128-n8:16:32:64-S128"
target triple = "x86_64-pc-linux-gnu"

%struct.CVodeMemRec = type { double, ptr, ptr, i32, i32, i32, double, double, ptr, i32, ptr, ptr, i32, ptr, i32, i32, double, double, ptr, i32, i32, i32, ptr, ptr, ptr, i32, i32, ptr, ptr, ptr, i32, double, i32, i32, double, ptr, ptr, i32, ptr, ptr, i32, i32, i32, double, ptr, ptr, [13 x ptr], ptr, ptr, ptr, ptr, ptr, [13 x ptr], ptr, ptr, ptr, ptr, [13 x ptr], ptr, ptr, ptr, ptr, ptr, i32, [13 x ptr], ptr, ptr, ptr, ptr, ptr, i32, double, i32, i32, i32, i32, i32, double, double, double, double, double, double, double, double, [14 x double], [6 x double], [13 x double], double, double, double, double, double, double, double, double, double, double, double, i32, ptr, i32, i64, i32, i32, i32, i32, i32, double, double, double, i64, i64, i64, i64, i64, i64, i64, i64, i64, ptr, i64, i64, ptr, i64, i64, i64, i64, i64, i64, i32, i64, i64, i64, i64, i64, i64, double, double, double, ptr, ptr, ptr, ptr, ptr, i32, i32, i64, double, double, double, i32, double, i32, i32, i32, i32, i32, i32, i32, i32, i32, i32, i32, i32, i32, i32, i32, i32, ptr, ptr, ptr, i32, [6 x [4 x double]], i32, i64, ptr, i32, ptr, ptr, double, double, double, ptr, ptr, ptr, double, double, i32, i32, i64, ptr, i32, i32, ptr, i32 }
%struct.CVadjMemRec = type { double, double, i32, i32, double, ptr, i32, ptr, i32, ptr, i32, ptr, i64, ptr, i64, i32, ptr, ptr, ptr, ptr, i32, i32, i32, i32, [13 x ptr], [13 x ptr], [13 x double], ptr, ptr, i64 }
%struct.CVodeBMemRec = type { i32, double, ptr, i32, i32, ptr, ptr, ptr, ptr, ptr, ptr, ptr, ptr, ptr, double, ptr, ptr }
%struct.CVSpilsMemRecB = type { ptr, ptr, ptr, ptr, ptr, ptr, ptr }

@.str = private unnamed_addr constant [8 x i8] c"CVSPILS\00", align 1
@.str.41 = private unnamed_addr constant [25 x i8] c"cvSpilsPrecSetupBWrapper\00", align 1
@.str.42 = private unnamed_addr constant [25 x i8] c"Bad t for interpolation.\00", align 1

; Function Attrs: nounwind uwtable
define internal i32 @cvSpilsPrecSetupBWrapper(double noundef %0, ptr noundef %1, ptr noundef %2, i32 noundef %3, ptr noundef %4, double noundef %5, ptr noundef %6, ptr noundef %7, ptr noundef %8, ptr noundef %9) #0 {
  %11 = alloca i32, align 4
  %12 = alloca double, align 8
  %13 = alloca ptr, align 8
  %14 = alloca ptr, align 8
  %15 = alloca i32, align 4
  %16 = alloca ptr, align 8
  %17 = alloca double, align 8
  %18 = alloca ptr, align 8
  %19 = alloca ptr, align 8
  %20 = alloca ptr, align 8
  %21 = alloca ptr, align 8
  %22 = alloca ptr, align 8
  %23 = alloca ptr, align 8
  %24 = alloca ptr, align 8
  %25 = alloca ptr, align 8
  %26 = alloca i32, align 4
  %27 = alloca i32, align 4
  %28 = alloca i32, align 4
  store double %0, ptr %12, align 8, !tbaa !29
  store ptr %1, ptr %13, align 8, !tbaa !48
  store ptr %2, ptr %14, align 8, !tbaa !48
  store i32 %3, ptr %15, align 4, !tbaa !7
  store ptr %4, ptr %16, align 8, !tbaa !91
  store double %5, ptr %17, align 8, !tbaa !29
  store ptr %6, ptr %18, align 8, !tbaa !3
  store ptr %7, ptr %19, align 8, !tbaa !48
  store ptr %8, ptr %20, align 8, !tbaa !48
  store ptr %9, ptr %21, align 8, !tbaa !48
  call void @llvm.lifetime.start.p0(i64 8, ptr %22) #5
  call void @llvm.lifetime.start.p0(i64 8, ptr %23) #5
  call void @llvm.lifetime.start.p0(i64 8, ptr %24) #5
  call void @llvm.lifetime.start.p0(i64 8, ptr %25) #5
  call void @llvm.lifetime.start.p0(i64 4, ptr %26) #5
  call void @llvm.lifetime.start.p0(i64 4, ptr %27) #5
  %29 = load ptr, ptr %18, align 8, !tbaa !3
  store ptr %29, ptr %22, align 8, !tbaa !9
  %30 = load ptr, ptr %22, align 8, !tbaa !9
  %31 = getelementptr inbounds nuw %struct.CVodeMemRec, ptr %30, i32 0, i32 194
  %32 = load ptr, ptr %31, align 8, !tbaa !63
  store ptr %32, ptr %23, align 8, !tbaa !64
  %33 = load ptr, ptr %23, align 8, !tbaa !64
  %34 = getelementptr inbounds nuw %struct.CVadjMemRec, ptr %33, i32 0, i32 7
  %35 = load ptr, ptr %34, align 8, !tbaa !87
  store ptr %35, ptr %24, align 8, !tbaa !71
  %36 = load ptr, ptr %24, align 8, !tbaa !71
  %37 = getelementptr inbounds nuw %struct.CVodeBMemRec, ptr %36, i32 0, i32 10
  %38 = load ptr, ptr %37, align 8, !tbaa !81
  store ptr %38, ptr %25, align 8, !tbaa !82
  %39 = load ptr, ptr %23, align 8, !tbaa !64
  %40 = getelementptr inbounds nuw %struct.CVadjMemRec, ptr %39, i32 0, i32 19
  %41 = load ptr, ptr %40, align 8, !tbaa !88
  %42 = load ptr, ptr %22, align 8, !tbaa !9
  %43 = load double, ptr %12, align 8, !tbaa !29
  %44 = load ptr, ptr %23, align 8, !tbaa !64
  %45 = getelementptr inbounds nuw %struct.CVadjMemRec, ptr %44, i32 0, i32 27
  %46 = load ptr, ptr %45, align 8, !tbaa !89
  %47 = call i32 %41(ptr noundef %42, double noundef %43, ptr noundef %46, ptr noundef null)
  store i32 %47, ptr %27, align 4, !tbaa !7
  %48 = load i32, ptr %27, align 4, !tbaa !7
  %49 = icmp ne i32 %48, 0
  br i1 %49, label %50, label %52

50:                                               ; preds = %10
  %51 = load ptr, ptr %22, align 8, !tbaa !9
  call void (ptr, i32, ptr, ptr, ptr, ...) @cvProcessError(ptr noundef %51, i32 noundef -1, ptr noundef @.str, ptr noundef @.str.41, ptr noundef @.str.42)
  store i32 -1, ptr %11, align 4
  store i32 1, ptr %28, align 4
  br label %73

52:                                               ; preds = %10
  %53 = load ptr, ptr %25, align 8, !tbaa !82
  %54 = getelementptr inbounds nuw %struct.CVSpilsMemRecB, ptr %53, i32 0, i32 2
  %55 = load ptr, ptr %54, align 8, !tbaa !84
  %56 = load double, ptr %12, align 8, !tbaa !29
  %57 = load ptr, ptr %23, align 8, !tbaa !64
  %58 = getelementptr inbounds nuw %struct.CVadjMemRec, ptr %57, i32 0, i32 27
  %59 = load ptr, ptr %58, align 8, !tbaa !89
  %60 = load ptr, ptr %13, align 8, !tbaa !48
  %61 = load ptr, ptr %14, align 8, !tbaa !48
  %62 = load i32, ptr %15, align 4, !tbaa !7
  %63 = load ptr, ptr %16, align 8, !tbaa !91
  %64 = load double, ptr %17, align 8, !tbaa !29
  %65 = load ptr, ptr %24, align 8, !tbaa !71
  %66 = getelementptr inbounds nuw %struct.CVodeBMemRec, ptr %65, i32 0, i32 9
  %67 = load ptr, ptr %66, align 8, !tbaa !90
  %68 = load ptr, ptr %19, align 8, !tbaa !48
  %69 = load ptr, ptr %20, align 8, !tbaa !48
  %70 = load ptr, ptr %21, align 8, !tbaa !48
  %71 = call i32 %55(double noundef %56, ptr noundef %59, ptr noundef %60, ptr noundef %61, i32 noundef %62, ptr noundef %63, double noundef %64, ptr noundef %67, ptr noundef %68, ptr noundef %69, ptr noundef %70)
  store i32 %71, ptr %26, align 4, !tbaa !7
  %72 = load i32, ptr %26, align 4, !tbaa !7
  store i32 %72, ptr %11, align 4
  store i32 1, ptr %28, align 4
  br label %73

73:                                               ; preds = %52, %50
  call void @llvm.lifetime.end.p0(i64 4, ptr %27) #5
  call void @llvm.lifetime.end.p0(i64 4, ptr %26) #5
  call void @llvm.lifetime.end.p0(i64 8, ptr %25) #5
  call void @llvm.lifetime.end.p0(i64 8, ptr %24) #5
  call void @llvm.lifetime.end.p0(i64 8, ptr %23) #5
  call void @llvm.lifetime.end.p0(i64 8, ptr %22) #5
  %74 = load i32, ptr %11, align 4
  ret i32 %74
}